; Function Attrs: nounwind uwtable
define internal void @_ZTv0_n24_N9Stockfish12_GLOBAL__N_16TBFileD1Ev(ptr noundef %0) unnamed_addr #9 align 2 {
  %2 = load ptr, ptr %0, align 8
  %3 = getelementptr inbounds i8, ptr %2, i64 -24
  %4 = load i64, ptr %3, align 8
  %5 = getelementptr inbounds i8, ptr %0, i64 %4
  store ptr getelementptr inbounds ({ [5 x ptr], [5 x ptr] }, ptr @_ZTVN9Stockfish12_GLOBAL__N_16TBFileE, i64 0, i32 0, i64 3), ptr %5, align 8
  %6 = getelementptr inbounds i8, ptr %5, i64 288
  store ptr getelementptr inbounds ({ [5 x ptr], [5 x ptr] }, ptr @_ZTVN9Stockfish12_GLOBAL__N_16TBFileE, i64 0, i32 1, i64 3), ptr %6, align 8
  %7 = getelementptr inbounds i8, ptr %5, i64 256
  tail call void @_ZNSt7__cxx1112basic_stringIcSt11char_traitsIcESaIcEED1Ev(ptr noundef nonnull align 8 dereferenceable(32) %7) #24
  tail call void @_ZNSt14basic_ifstreamIcSt11char_traitsIcEED2Ev(ptr noundef nonnull align 8 dereferenceable(256) %5, ptr noundef nonnull getelementptr inbounds ([6 x ptr], ptr @_ZTTN9Stockfish12_GLOBAL__N_16TBFileE, i64 0, i64 1)) #24
  tail call void @_ZNSt9basic_iosIcSt11char_traitsIcEED2Ev(ptr noundef nonnull align 8 dereferenceable(264) %6) #24
  ret void
}